; Function Attrs: nounwind uwtable
define internal void @ff_tx_fft_pfa_float_c(ptr noundef readonly captures(none) %0, ptr noundef writeonly captures(none) %1, ptr noundef readonly captures(none) %2, i64 noundef %3) #3 {
  %5 = getelementptr inbounds nuw i8, ptr %0, i64 32
  %6 = load ptr, ptr %5, align 8, !tbaa !56
  %7 = load i32, ptr %6, align 8, !tbaa !16
  %8 = getelementptr inbounds nuw i8, ptr %6, i64 160
  %9 = load i32, ptr %8, align 8, !tbaa !16
  %10 = load i32, ptr %0, align 8, !tbaa !16
  %11 = getelementptr inbounds nuw i8, ptr %0, i64 8
  %12 = load ptr, ptr %11, align 8, !tbaa !57
  %13 = sext i32 %10 to i64
  %14 = getelementptr inbounds i32, ptr %12, i64 %13
  %15 = getelementptr inbounds nuw i8, ptr %6, i64 168
  %16 = load ptr, ptr %15, align 8, !tbaa !57
  %17 = getelementptr inbounds nuw i8, ptr %6, i64 288
  %18 = load i64, ptr %17, align 8, !tbaa !54
  %19 = and i64 %18, 1
  %.not = icmp eq i64 %19, 0
  %20 = getelementptr inbounds nuw i8, ptr %0, i64 24
  %21 = getelementptr inbounds nuw i8, ptr %0, i64 16
  %.in = select i1 %.not, ptr %21, ptr %20
  %22 = load ptr, ptr %.in, align 8, !tbaa !63
  %23 = lshr i64 %3, 3
  %24 = icmp sgt i32 %9, 0
  br i1 %24, label %.preheader58.lr.ph, label %.preheader57

.preheader58.lr.ph:                               ; preds = %4
  %25 = icmp sgt i32 %7, 0
  %26 = getelementptr inbounds nuw i8, ptr %0, i64 40
  %27 = zext nneg i32 %9 to i64
  %28 = shl nuw nsw i64 %27, 3
  br i1 %25, label %.preheader58.us.preheader, label %.preheader58

.preheader58.us.preheader:                        ; preds = %.preheader58.lr.ph
  %29 = zext nneg i32 %7 to i64
  br label %.preheader58.us

.preheader58.us:                                  ; preds = %.preheader58.us.preheader, %._crit_edge.us
  %indvars.iv71 = phi i64 [ 0, %.preheader58.us.preheader ], [ %indvars.iv.next72, %._crit_edge.us ]
  %30 = mul nuw nsw i64 %indvars.iv71, %29
  %invariant.gep = getelementptr inbounds nuw i32, ptr %12, i64 %30
  br label %31

31:                                               ; preds = %.preheader58.us, %31
  %indvars.iv66 = phi i64 [ 0, %.preheader58.us ], [ %indvars.iv.next67, %31 ]
  %32 = load ptr, ptr %21, align 8, !tbaa !26
  %33 = getelementptr inbounds nuw %struct.AVComplexFloat, ptr %32, i64 %indvars.iv66
  %gep = getelementptr inbounds nuw i32, ptr %invariant.gep, i64 %indvars.iv66
  %34 = load i32, ptr %gep, align 4, !tbaa !10
  %35 = sext i32 %34 to i64
  %36 = getelementptr inbounds %struct.AVComplexFloat, ptr %2, i64 %35
  %37 = load i64, ptr %36, align 4
  store i64 %37, ptr %33, align 4
  %indvars.iv.next67 = add nuw nsw i64 %indvars.iv66, 1
  %exitcond70.not = icmp eq i64 %indvars.iv.next67, %29
  br i1 %exitcond70.not, label %._crit_edge.us, label %31, !llvm.loop !64

._crit_edge.us:                                   ; preds = %31
  %38 = load ptr, ptr %26, align 8, !tbaa !4
  %39 = load ptr, ptr %5, align 8, !tbaa !56
  %40 = load ptr, ptr %20, align 8, !tbaa !55
  %41 = getelementptr inbounds nuw i32, ptr %16, i64 %indvars.iv71
  %42 = load i32, ptr %41, align 4, !tbaa !10
  %43 = sext i32 %42 to i64
  %44 = getelementptr inbounds %struct.AVComplexFloat, ptr %40, i64 %43
  %45 = load ptr, ptr %21, align 8, !tbaa !26
  tail call void %38(ptr noundef %39, ptr noundef %44, ptr noundef %45, i64 noundef %28) #16
  %indvars.iv.next72 = add nuw nsw i64 %indvars.iv71, 1
  %exitcond75.not = icmp eq i64 %indvars.iv.next72, %27
  br i1 %exitcond75.not, label %.preheader57, label %.preheader58.us, !llvm.loop !65

.preheader58:                                     ; preds = %.preheader58.lr.ph, %.preheader58
  %indvars.iv = phi i64 [ %indvars.iv.next, %.preheader58 ], [ 0, %.preheader58.lr.ph ]
  %46 = load ptr, ptr %26, align 8, !tbaa !4
  %47 = load ptr, ptr %5, align 8, !tbaa !56
  %48 = load ptr, ptr %20, align 8, !tbaa !55
  %49 = getelementptr inbounds nuw i32, ptr %16, i64 %indvars.iv
  %50 = load i32, ptr %49, align 4, !tbaa !10
  %51 = sext i32 %50 to i64
  %52 = getelementptr inbounds %struct.AVComplexFloat, ptr %48, i64 %51
  %53 = load ptr, ptr %21, align 8, !tbaa !26
  tail call void %46(ptr noundef %47, ptr noundef %52, ptr noundef %53, i64 noundef %28) #16
  %indvars.iv.next = add nuw nsw i64 %indvars.iv, 1
  %exitcond.not = icmp eq i64 %indvars.iv.next, %27
  br i1 %exitcond.not, label %.preheader, label %.preheader58, !llvm.loop !65

.preheader57:                                     ; preds = %._crit_edge.us, %4
  %54 = icmp sgt i32 %7, 0
  br i1 %54, label %.lr.ph, label %.preheader

.lr.ph:                                           ; preds = %.preheader57
  %55 = getelementptr inbounds nuw i8, ptr %0, i64 48
  %56 = sext i32 %9 to i64
  %wide.trip.count79 = zext nneg i32 %7 to i64
  br label %58

.preheader:                                       ; preds = %.preheader58, %58, %.preheader57
  %57 = icmp sgt i32 %10, 0
  br i1 %57, label %.lr.ph63.preheader, label %._crit_edge

.lr.ph63.preheader:                               ; preds = %.preheader
  %wide.trip.count84 = zext nneg i32 %10 to i64
  br label %.lr.ph63

58:                                               ; preds = %.lr.ph, %58
  %indvars.iv76 = phi i64 [ 0, %.lr.ph ], [ %indvars.iv.next77, %58 ]
  %59 = load ptr, ptr %55, align 8, !tbaa !4
  %60 = load ptr, ptr %5, align 8, !tbaa !56
  %61 = getelementptr inbounds nuw i8, ptr %60, i64 160
  %62 = mul nsw i64 %indvars.iv76, %56
  %63 = getelementptr inbounds %struct.AVComplexFloat, ptr %22, i64 %62
  %64 = load ptr, ptr %20, align 8, !tbaa !55
  %65 = getelementptr inbounds %struct.AVComplexFloat, ptr %64, i64 %62
  tail call void %59(ptr noundef nonnull %61, ptr noundef %63, ptr noundef %65, i64 noundef 8) #16
  %indvars.iv.next77 = add nuw nsw i64 %indvars.iv76, 1
  %exitcond80.not = icmp eq i64 %indvars.iv.next77, %wide.trip.count79
  br i1 %exitcond80.not, label %.preheader, label %58, !llvm.loop !66

._crit_edge:                                      ; preds = %.lr.ph63, %.preheader
  ret void

.lr.ph63:                                         ; preds = %.lr.ph63.preheader, %.lr.ph63
  %indvars.iv81 = phi i64 [ 0, %.lr.ph63.preheader ], [ %indvars.iv.next82, %.lr.ph63 ]
  %66 = mul nuw nsw i64 %23, %indvars.iv81
  %67 = getelementptr inbounds nuw %struct.AVComplexFloat, ptr %1, i64 %66
  %68 = getelementptr inbounds nuw i32, ptr %14, i64 %indvars.iv81
  %69 = load i32, ptr %68, align 4, !tbaa !10
  %70 = sext i32 %69 to i64
  %71 = getelementptr inbounds %struct.AVComplexFloat, ptr %22, i64 %70
  %72 = load i64, ptr %71, align 4
  store i64 %72, ptr %67, align 4
  %indvars.iv.next82 = add nuw nsw i64 %indvars.iv81, 1
  %exitcond85.not = icmp eq i64 %indvars.iv.next82, %wide.trip.count84
  br i1 %exitcond85.not, label %._crit_edge, label %.lr.ph63, !llvm.loop !67
}